(dp0
S'roi'
p1
((S'x_offset'
p2
I0
tp3
(S'y_offset'
p4
I0
tp5
(S'height'
p6
I0
tp7
(S'width'
p8
I0
tp9
tp10
sS'D'
p11
(F-0.29903599999999997
F0.5193369999999999
F0.013999999999999999
F-0.007345
F0.0
tp12
sS'P'
p13
(F2065.082565
F0.0
F1416.692772
F-10.561964
F0.0
F2065.082565
F561.689518
F0.0
F0.0
F0.0
F1.0
F0.0
tp14
sS'K'
p15
(F1822.603749
F0.0
F1000.240497
F0.0
F1815.682094
F571.823876
F0.0
F0.0
F1.0
tp16
sg6
I1080
sg8
I1920
sS'R'
p17
(F0.973947
F0.00868
F-0.22660799999999998
F-0.009516
F0.9999509999999999
F-0.0025989999999999997
F0.226574
F0.0046879999999999995
F0.9739829999999999
tp18
sS'binning_y'
p19
I0
sS'binning_x'
p20
I0
sS'distortion_model'
p21
S'plumb_bob'
p22
s.