ccopy_reg
_reconstructor
p0
(csensor_msgs.msg._CameraInfo
CameraInfo
p1
c__builtin__
object
p2
Ntp3
Rp4
(lp5
g0
(cstd_msgs.msg._Header
Header
p6
g2
Ntp7
Rp8
(lp9
I51697
ag0
(cgenpy.rostime
Time
p10
g2
Ntp11
Rp12
(lp13
I1464635070
aI2588831
abaS'/endoscope_frame'
p14
abaI1080
aI1920
aS'plumb_bob'
p15
a(F-0.26295199999999996
F0.471655
F-0.0076549999999999995
F0.008394
F0.0
tp16
a(F1792.306171
F0.0
F792.884572
F0.0
F1794.421543
F552.002024
F0.0
F0.0
F1.0
tp17
a(F0.969992
F0.010291999999999999
F-0.242919
F-0.009394
F0.9999439999999999
F0.004854
F0.24295599999999998
F-0.0024259999999999998
F0.970034
tp18
a(F2065.082565
F0.0
F1416.692772
F0.0
F0.0
F2065.082565
F561.689518
F0.0
F0.0
F0.0
F1.0
F0.0
tp19
aI0
aI0
ag0
(csensor_msgs.msg._RegionOfInterest
RegionOfInterest
p20
g2
Ntp21
Rp22
(lp23
I0
aI0
aI0
aI0
aI00
abab.