ccopy_reg
_reconstructor
p0
(csensor_msgs.msg._CameraInfo
CameraInfo
p1
c__builtin__
object
p2
Ntp3
Rp4
(lp5
g0
(cstd_msgs.msg._Header
Header
p6
g2
Ntp7
Rp8
(lp9
I484283
ag0
(cgenpy.rostime
Time
p10
g2
Ntp11
Rp12
(lp13
I1465436200
aI71614748
abaS'/endoscope_frame'
p14
abaI1080
aI1920
aS'plumb_bob'
p15
a(F-0.29903599999999997
F0.5193369999999999
F0.013999999999999999
F-0.007345
F0.0
tp16
a(F1822.603749
F0.0
F1000.240497
F0.0
F1815.682094
F571.823876
F0.0
F0.0
F1.0
tp17
a(F0.973947
F0.00868
F-0.22660799999999998
F-0.009516
F0.9999509999999999
F-0.0025989999999999997
F0.226574
F0.0046879999999999995
F0.9739829999999999
tp18
a(F2065.082565
F0.0
F1416.692772
F-10.561964
F0.0
F2065.082565
F561.689518
F0.0
F0.0
F0.0
F1.0
F0.0
tp19
aI0
aI0
ag0
(csensor_msgs.msg._RegionOfInterest
RegionOfInterest
p20
g2
Ntp21
Rp22
(lp23
I0
aI0
aI0
aI0
aI00
abab.