(dp0
S'roi'
p1
((S'x_offset'
p2
I0
tp3
(S'y_offset'
p4
I0
tp5
(S'height'
p6
I0
tp7
(S'width'
p8
I0
tp9
tp10
sS'D'
p11
(F-0.26295199999999996
F0.471655
F-0.0076549999999999995
F0.008394
F0.0
tp12
sS'P'
p13
(F2065.082565
F0.0
F1416.692772
F0.0
F0.0
F2065.082565
F561.689518
F0.0
F0.0
F0.0
F1.0
F0.0
tp14
sS'K'
p15
(F1792.306171
F0.0
F792.884572
F0.0
F1794.421543
F552.002024
F0.0
F0.0
F1.0
tp16
sg6
I1080
sg8
I1920
sS'R'
p17
(F0.969992
F0.010291999999999999
F-0.242919
F-0.009394
F0.9999439999999999
F0.004854
F0.24295599999999998
F-0.0024259999999999998
F0.970034
tp18
sS'binning_y'
p19
I0
sS'binning_x'
p20
I0
sS'distortion_model'
p21
S'plumb_bob'
p22
s.