(lp0
F0.04329398693803115
aF0.06442813618423453
aF-0.11433723844765369
a.(lp0
F0.045269175894487056
aF0.0747712093710518
aF-0.11483688664274716
a.(lp0
F0.05030060252162534
aF0.08049080386604283
aF-0.11649272074053649
a.(lp0
F0.05711995305308388
aF0.08456082964256975
aF-0.11780700819239394
a.(lp0
F0.07140033017490414
aF0.08699064745881536
aF-0.1185477673607883
a.(lp0
F0.0809668062375764
aF0.08585379943389547
aF-0.11971440699564917
a.(lp0
F0.09131109432920131
aF0.08711525726889399
aF-0.1188702482979125
a.(lp0
F0.09846381045485494
aF0.0869411883781607
aF-0.11861367555601114
a.