(lp0
F0.055868812177015746
aF0.051574306213876535
aF-0.1177731495831848
a.(lp0
F0.055569191570688195
aF0.05510259029182423
aF-0.11629711162146594
a.(lp0
F0.056516847474295195
aF0.058971036296292224
aF-0.1167003920994008
a.(lp0
F0.058011926844840786
aF0.06328541492734235
aF-0.1169963840435267
a.(lp0
F0.06140029139137286
aF0.0670366011417891
aF-0.11809202621148143
a.(lp0
F0.06540064591876875
aF0.07039167709494783
aF-0.11977415027030637
a.(lp0
F0.07173452744172576
aF0.07333874864109596
aF-0.11950995428484196
a.(lp0
F0.07714404741713503
aF0.0746316874747221
aF-0.11907558450369594
a.(lp0
F0.08376215931980723
aF0.07443003835055616
aF-0.11909988377431645
a.(lp0
F0.08968029791816486
aF0.0725996354746117
aF-0.11935434549078713
a.(lp0
F0.09086243417631974
aF0.07032307979064747
aF-0.11994066815557024
a.(lp0
F0.0946903621897417
aF0.06779429355523518
aF-0.11996835798627582
a.(lp0
F0.09813638726198123
aF0.06341036221812436
aF-0.11954125253012263
a.(lp0
F0.10090614082555824
aF0.05862479232737683
aF-0.1196960893828614
a.