(lp0
F0.052241551944579113
aF0.04906084186071902
aF-0.12036445149513388
a.(lp0
F0.0589915280641269
aF0.03792972756015174
aF-0.12169590433033561
a.(lp0
F0.07135964127707571
aF0.028269309950194367
aF-0.12261980277234584
a.(lp0
F0.08208269975411997
aF0.028080073713555757
aF-0.12093152746500241
a.(lp0
F0.09782514394108408
aF0.03551184915743618
aF-0.12363407388393778
a.(lp0
F0.10508892171820297
aF0.044819046300951376
aF-0.12219475860904641
a.(lp0
F0.10664461212399831
aF0.05205012785623648
aF-0.12170387224125552
a.