(lp0
F0.046564830956299444
aF0.02776138469344637
aF-0.11863314860977474
a.(lp0
F0.037004392427411645
aF0.03389375559409401
aF-0.11504387310530988
a.(lp0
F0.035537612313655945
aF0.046247341831096744
aF-0.11262210298356544
a.(lp0
F0.04456413676490302
aF0.06087622300488182
aF-0.11520043613959292
a.(lp0
F0.05831018432222892
aF0.0685930558237346
aF-0.11878684356874457
a.(lp0
F0.07203137941116068
aF0.07011288220941642
aF-0.11716057608471526
a.(lp0
F0.08929809132641285
aF0.05759258077905098
aF-0.11953220352721251
a.(lp0
F0.09364713297338244
aF0.04861852754137915
aF-0.11729703503944362
a.