(lp0
F0.044313318970734906
aF0.04727299253582293
aF-0.1146411584386426
a.(lp0
F0.04498088743963687
aF0.055880409540254285
aF-0.11531261536058822
a.(lp0
F0.048738251114781396
aF0.060775428374301235
aF-0.11598915942311819
a.(lp0
F0.05345132563134684
aF0.06580549531795069
aF-0.11558044888134446
a.(lp0
F0.05862960195464971
aF0.0679599841363985
aF-0.11594097686955114
a.(lp0
F0.06427522514250585
aF0.07043060888807008
aF-0.11648948540212763
a.(lp0
F0.07047467286559314
aF0.07211466833951691
aF-0.11611944538977755
a.(lp0
F0.07924586415869003
aF0.07025656687937457
aF-0.11703924758789788
a.(lp0
F0.08331637526155966
aF0.06736857232744825
aF-0.11998194185095568
a.(lp0
F0.08821865583963927
aF0.06411482532033246
aF-0.11943895753877747
a.(lp0
F0.09284059477891758
aF0.05757416900831891
aF-0.12066131465711201
a.(lp0
F0.09415956648806979
aF0.05009344916812547
aF-0.12297903960990293
a.(lp0
F0.09319473410892024
aF0.04518952835859672
aF-0.1255541797968535
a.