(lp0
F0.03662405481022766
aF0.04675891640959883
aF-0.11336611080536523
a.(lp0
F0.04317210474674234
aF0.03878177598715143
aF-0.11614630822786397
a.(lp0
F0.05422749071161809
aF0.028816364067360923
aF-0.11940095891010415
a.(lp0
F0.06624851781975169
aF0.027177892533578687
aF-0.12036022076145694
a.(lp0
F0.0804283275860923
aF0.033382150471700595
aF-0.12113711384235504
a.(lp0
F0.08745466687971294
aF0.04347686640880721
aF-0.12153686533853257
a.(lp0
F0.09090928119588687
aF0.056541971689291974
aF-0.11928440141194945
a.