(lp0
F0.04333909638512885
aF0.04444963322981311
aF-0.11510326694847572
a.(lp0
F0.04496205332158706
aF0.040786971728462594
aF-0.11583748963354805
a.(lp0
F0.04768369446950686
aF0.03580653629626092
aF-0.11640308780306238
a.(lp0
F0.049995736481765765
aF0.032412820839274
aF-0.11807049260160869
a.(lp0
F0.05705031759139349
aF0.02871294758034253
aF-0.11969873740601321
a.(lp0
F0.06543230446020712
aF0.02453341527771757
aF-0.12099718481763952
a.(lp0
F0.07203584459011711
aF0.025645972998536434
aF-0.1229905765784839
a.(lp0
F0.08344979575547204
aF0.029457713983442164
aF-0.12382662069406875
a.(lp0
F0.0900124522937311
aF0.03584142810648604
aF-0.12244525873002128
a.(lp0
F0.09347241713648147
aF0.042582065430036835
aF-0.123450655500177
a.(lp0
F0.09437041698308302
aF0.047219892443081744
aF-0.12252213537645447
a.(lp0
F0.09474983256715903
aF0.05122222079814032
aF-0.12059082921347157
a.