(lp0
F0.052829446678228566
aF0.04404378431420872
aF-0.11915026612075684
a.(lp0
F0.05475681245547415
aF0.04087176126331247
aF-0.11939543016301138
a.(lp0
F0.056543267794106
aF0.038424889997488235
aF-0.11937854655091401
a.(lp0
F0.05760603676259532
aF0.03541143340512046
aF-0.119799942826786
a.(lp0
F0.0593343520053618
aF0.0324057463542621
aF-0.11981143891133117
a.(lp0
F0.06199915060020153
aF0.030155279187083918
aF-0.12043289727241387
a.(lp0
F0.06541633471125184
aF0.028507152319296947
aF-0.12035826577926963
a.(lp0
F0.06900831754104841
aF0.02607703417535872
aF-0.12083346491619601
a.(lp0
F0.0721183606012471
aF0.02553137725654708
aF-0.12135082726228173
a.(lp0
F0.07595382301739109
aF0.024815036110600115
aF-0.12193050698352384
a.(lp0
F0.08012258055109324
aF0.025680307357996455
aF-0.12316275335347521
a.(lp0
F0.08416654309328124
aF0.026117761028456338
aF-0.12253708832968455
a.(lp0
F0.08809582818583542
aF0.0281308268664432
aF-0.12282062296521422
a.(lp0
F0.09264159189748891
aF0.030274674838122743
aF-0.12277885947976488
a.(lp0
F0.09622503156104545
aF0.03371568195136252
aF-0.12300058205068656
a.(lp0
F0.09758147323799178
aF0.03759932623120478
aF-0.121374718030132
a.(lp0
F0.10001823332240672
aF0.039638581527567184
aF-0.12360029031901737
a.(lp0
F0.10260732482817049
aF0.04528207623147178
aF-0.12380419392719592
a.(lp0
F0.1028675545023177
aF0.0487828944300756
aF-0.12225008381919995
a.(lp0
F0.102066298751951
aF0.05182848885800893
aF-0.12172931447483477
a.(lp0
F0.101747038033986
aF0.05483299895522804
aF-0.12100756238538629
a.