(lp0
F0.06241207252152612
aF0.07364385811239615
aF-0.11666429057950291
a.(lp0
F0.04891340498226814
aF0.06821341875378255
aF-0.11742698671221728
a.(lp0
F0.04132297926907528
aF0.05712985927403439
aF-0.11677216565659561
a.(lp0
F0.03958079201220743
aF0.04697842130267204
aF-0.11881317584001955
a.(lp0
F0.041513178279164176
aF0.03773958404436412
aF-0.11915072083011471
a.(lp0
F0.045164500287472015
aF0.03527354524394279
aF-0.11725921988727547
a.(lp0
F0.053853810553171434
aF0.02683768843975547
aF-0.11943177915511252
a.(lp0
F0.066702888209769
aF0.02649568226773587
aF-0.12188222600370416
a.(lp0
F0.07738917578250787
aF0.03050755362782299
aF-0.11990310216806628
a.(lp0
F0.08347174402810928
aF0.03735745419274107
aF-0.12136647744959587
a.(lp0
F0.0865165058559151
aF0.05085017828978696
aF-0.12173926269313652
a.(lp0
F0.08666503938226568
aF0.060220733959035426
aF-0.1201353582781917
a.(lp0
F0.07648907170100305
aF0.0699070062474781
aF-0.11830859368835228
a.(lp0
F0.06828126335611617
aF0.07141555661944524
aF-0.11848229873669971
a.(lp0
F0.05462430071221103
aF0.07486028722995612
aF-0.11723171931845489
a.