(lp0
F0.04026646124871014
aF0.043144397744602075
aF-0.11591162090876543
a.(lp0
F0.04066609269597008
aF0.06000279339857457
aF-0.11439675130788168
a.(lp0
F0.05390012803924344
aF0.07244061642989309
aF-0.11353052845924862
a.(lp0
F0.06709319940343172
aF0.07440041973807723
aF-0.11599871669149533
a.(lp0
F0.08069721105758368
aF0.07199098681218495
aF-0.11395224950725866
a.(lp0
F0.09140645805482908
aF0.05758562803768958
aF-0.12000088528498484
a.(lp0
F0.09207369263969303
aF0.050362856828960925
aF-0.1211937056669396
a.