(lp0
F0.05743798030690169
aF0.03904298837433766
aF-0.12014930048642239
a.(lp0
F0.0542426248547353
aF0.04856649865584523
aF-0.11949188853246837
a.(lp0
F0.05488537636832853
aF0.06172058884905474
aF-0.11599352729297138
a.(lp0
F0.06417544522352436
aF0.07125679488043242
aF-0.11473387583911042
a.(lp0
F0.07400842505518376
aF0.07553274741699936
aF-0.11564938174570692
a.(lp0
F0.08535626421342657
aF0.07542787034983264
aF-0.11680332007761852
a.(lp0
F0.09537847669255363
aF0.07012399436097273
aF-0.11626191441319708
a.(lp0
F0.10525101895616742
aF0.06411882233743763
aF-0.1173702074607432
a.(lp0
F0.10460284077333537
aF0.05475385872767066
aF-0.12253748698960722
a.