(lp0
F0.036323998726744855
aF0.03877086121088545
aF-0.11136088506208273
a.(lp0
F0.0449325858924738
aF0.027573728769652858
aF-0.11674907488276068
a.(lp0
F0.05665718236222482
aF0.022066584389207233
aF-0.12042349580688838
a.(lp0
F0.0746080131339864
aF0.02411170144885343
aF-0.12231350996322715
a.(lp0
F0.08510671391379077
aF0.03340982603127438
aF-0.12255625930282739
a.(lp0
F0.0886307201730593
aF0.050870670244960614
aF-0.11895134265630862
a.