(lp0
F0.044765507884801915
aF0.07162547494946564
aF-0.11528918602900329
a.(lp0
F0.04581269575783407
aF0.06152689575499079
aF-0.11648071964784883
a.(lp0
F0.05040823268273316
aF0.05535645339720832
aF-0.11776764126341471
a.(lp0
F0.06131737720249739
aF0.04961552752074173
aF-0.11927029795635744
a.(lp0
F0.06906885928163242
aF0.04611439534305841
aF-0.12226963454425419
a.(lp0
F0.07841525448783287
aF0.04615490820730484
aF-0.122896412582596
a.(lp0
F0.08804066269607803
aF0.04593979460357038
aF-0.1246047168850135
a.(lp0
F0.09964358197791492
aF0.04735136982701428
aF-0.12424097721101725
a.(lp0
F0.10580231050278753
aF0.04715834211436236
aF-0.12499481181742232
a.